; Function Attrs: mustprogress uwtable
define noundef nonnull align 8 dereferenceable(72) ptr @_ZrsRN12colvarmodule13memory_streamERKN11colvarparse10read_blockE(ptr noundef nonnull returned align 8 dereferenceable(72) %0, ptr noundef nonnull align 8 dereferenceable(40) %1) local_unnamed_addr #2 personality ptr @__gxx_personality_v0 {
  %3 = alloca %"class.std::__cxx11::basic_string", align 8
  %4 = alloca %"class.std::__cxx11::basic_string", align 8
  %5 = alloca %"class.std::__cxx11::basic_istringstream", align 8
  %6 = getelementptr inbounds i8, ptr %0, i64 64
  %7 = load i64, ptr %6, align 8
  call void @_ZNSt7__cxx1112basic_stringIcSt11char_traitsIcESaIcEEC1Ev(ptr noundef nonnull align 8 dereferenceable(32) %3) #15
  %8 = invoke noundef nonnull align 8 dereferenceable(72) ptr @_ZrsINSt7__cxx1112basic_stringIcSt11char_traitsIcESaIcEEEERN12colvarmodule13memory_streamES8_RT_(ptr noundef nonnull align 8 dereferenceable(72) %0, ptr noundef nonnull align 8 dereferenceable(32) %3)
          to label %9 unwind label %24

9:                                                ; preds = %2
  %10 = getelementptr inbounds i8, ptr %8, i64 56
  %11 = load i32, ptr %10, align 8
  %12 = icmp eq i32 %11, 0
  br i1 %12, label %13, label %_ZSteqIcEN9__gnu_cxx11__enable_ifIXsr9__is_charIT_EE7__valueEbE6__typeERKNSt7__cxx1112basic_stringIS2_St11char_traitsIS2_ESaIS2_EEESC_.exit.thread21

13:                                               ; preds = %9
  %14 = call noundef i64 @_ZNKSt7__cxx1112basic_stringIcSt11char_traitsIcESaIcEE4sizeEv(ptr noundef nonnull align 8 dereferenceable(32) %3) #15
  %15 = call noundef i64 @_ZNKSt7__cxx1112basic_stringIcSt11char_traitsIcESaIcEE4sizeEv(ptr noundef nonnull align 8 dereferenceable(32) %1) #15
  %16 = icmp eq i64 %14, %15
  br i1 %16, label %17, label %_ZSteqIcEN9__gnu_cxx11__enable_ifIXsr9__is_charIT_EE7__valueEbE6__typeERKNSt7__cxx1112basic_stringIS2_St11char_traitsIS2_ESaIS2_EEESC_.exit.thread21

17:                                               ; preds = %13
  %18 = call noundef ptr @_ZNKSt7__cxx1112basic_stringIcSt11char_traitsIcESaIcEE4dataEv(ptr noundef nonnull align 8 dereferenceable(32) %3) #15
  %19 = call noundef ptr @_ZNKSt7__cxx1112basic_stringIcSt11char_traitsIcESaIcEE4dataEv(ptr noundef nonnull align 8 dereferenceable(32) %1) #15
  %20 = call noundef i64 @_ZNKSt7__cxx1112basic_stringIcSt11char_traitsIcESaIcEE4sizeEv(ptr noundef nonnull align 8 dereferenceable(32) %3) #15
  %21 = icmp eq i64 %20, 0
  br i1 %21, label %_ZSteqIcEN9__gnu_cxx11__enable_ifIXsr9__is_charIT_EE7__valueEbE6__typeERKNSt7__cxx1112basic_stringIS2_St11char_traitsIS2_ESaIS2_EEESC_.exit.thread, label %_ZSteqIcEN9__gnu_cxx11__enable_ifIXsr9__is_charIT_EE7__valueEbE6__typeERKNSt7__cxx1112basic_stringIS2_St11char_traitsIS2_ESaIS2_EEESC_.exit

_ZSteqIcEN9__gnu_cxx11__enable_ifIXsr9__is_charIT_EE7__valueEbE6__typeERKNSt7__cxx1112basic_stringIS2_St11char_traitsIS2_ESaIS2_EEESC_.exit: ; preds = %17
  %bcmp.i = call i32 @bcmp(ptr %18, ptr %19, i64 %20)
  %22 = icmp eq i32 %bcmp.i, 0
  br i1 %22, label %_ZSteqIcEN9__gnu_cxx11__enable_ifIXsr9__is_charIT_EE7__valueEbE6__typeERKNSt7__cxx1112basic_stringIS2_St11char_traitsIS2_ESaIS2_EEESC_.exit.thread, label %_ZSteqIcEN9__gnu_cxx11__enable_ifIXsr9__is_charIT_EE7__valueEbE6__typeERKNSt7__cxx1112basic_stringIS2_St11char_traitsIS2_ESaIS2_EEESC_.exit.thread21

_ZSteqIcEN9__gnu_cxx11__enable_ifIXsr9__is_charIT_EE7__valueEbE6__typeERKNSt7__cxx1112basic_stringIS2_St11char_traitsIS2_ESaIS2_EEESC_.exit.thread21: ; preds = %13, %_ZSteqIcEN9__gnu_cxx11__enable_ifIXsr9__is_charIT_EE7__valueEbE6__typeERKNSt7__cxx1112basic_stringIS2_St11char_traitsIS2_ESaIS2_EEESC_.exit, %9
  %23 = getelementptr inbounds i8, ptr %0, i64 56
  store i64 %7, ptr %6, align 8
  store i32 4, ptr %23, align 8
  br label %52

24:                                               ; preds = %2
  %25 = landingpad { ptr, i32 }
          cleanup
  br label %53

_ZSteqIcEN9__gnu_cxx11__enable_ifIXsr9__is_charIT_EE7__valueEbE6__typeERKNSt7__cxx1112basic_stringIS2_St11char_traitsIS2_ESaIS2_EEESC_.exit.thread: ; preds = %17, %_ZSteqIcEN9__gnu_cxx11__enable_ifIXsr9__is_charIT_EE7__valueEbE6__typeERKNSt7__cxx1112basic_stringIS2_St11char_traitsIS2_ESaIS2_EEESC_.exit
  call void @_ZNSt7__cxx1112basic_stringIcSt11char_traitsIcESaIcEEC1Ev(ptr noundef nonnull align 8 dereferenceable(32) %4) #15
  %26 = invoke noundef nonnull align 8 dereferenceable(72) ptr @_ZrsINSt7__cxx1112basic_stringIcSt11char_traitsIcESaIcEEEERN12colvarmodule13memory_streamES8_RT_(ptr noundef nonnull align 8 dereferenceable(72) %0, ptr noundef nonnull align 8 dereferenceable(32) %4)
          to label %27 unwind label %45

27:                                               ; preds = %_ZSteqIcEN9__gnu_cxx11__enable_ifIXsr9__is_charIT_EE7__valueEbE6__typeERKNSt7__cxx1112basic_stringIS2_St11char_traitsIS2_ESaIS2_EEESC_.exit.thread
  %28 = getelementptr inbounds i8, ptr %26, i64 56
  %29 = load i32, ptr %28, align 8
  %30 = icmp eq i32 %29, 0
  br i1 %30, label %31, label %50

31:                                               ; preds = %27
  invoke void @_ZNSt7__cxx1119basic_istringstreamIcSt11char_traitsIcESaIcEEC1ERKNS_12basic_stringIcS2_S3_EESt13_Ios_Openmode(ptr noundef nonnull align 8 dereferenceable(120) %5, ptr noundef nonnull align 8 dereferenceable(32) %4, i32 noundef 8)
          to label %32 unwind label %45

32:                                               ; preds = %31
  %33 = invoke noundef nonnull align 8 dereferenceable(16) ptr @_ZNK11colvarparse10read_block19read_block_contentsERSib(ptr noundef nonnull align 8 dereferenceable(40) %1, ptr noundef nonnull align 8 dereferenceable(16) %5, i1 noundef zeroext true)
          to label %34 unwind label %47

34:                                               ; preds = %32
  %35 = load ptr, ptr %5, align 8
  %36 = getelementptr i8, ptr %35, i64 -24
  %37 = load i64, ptr %36, align 8
  %38 = getelementptr inbounds i8, ptr %5, i64 %37
  %39 = invoke noundef zeroext i1 @_ZNKSt9basic_iosIcSt11char_traitsIcEEntEv(ptr noundef nonnull align 8 dereferenceable(264) %38)
          to label %40 unwind label %47

40:                                               ; preds = %34
  br i1 %39, label %41, label %49

41:                                               ; preds = %40
  store i64 %7, ptr %6, align 8
  %42 = getelementptr inbounds i8, ptr %0, i64 56
  %43 = load i32, ptr %42, align 8
  %44 = or i32 %43, 4
  store i32 %44, ptr %42, align 8
  br label %49

45:                                               ; preds = %31, %_ZSteqIcEN9__gnu_cxx11__enable_ifIXsr9__is_charIT_EE7__valueEbE6__typeERKNSt7__cxx1112basic_stringIS2_St11char_traitsIS2_ESaIS2_EEESC_.exit.thread
  %46 = landingpad { ptr, i32 }
          cleanup
  br label %51

47:                                               ; preds = %34, %32
  %48 = landingpad { ptr, i32 }
          cleanup
  call void @_ZNSt7__cxx1119basic_istringstreamIcSt11char_traitsIcESaIcEED1Ev(ptr noundef nonnull align 8 dereferenceable(120) %5) #15
  br label %51

49:                                               ; preds = %41, %40
  call void @_ZNSt7__cxx1119basic_istringstreamIcSt11char_traitsIcESaIcEED1Ev(ptr noundef nonnull align 8 dereferenceable(120) %5) #15
  br label %50

50:                                               ; preds = %49, %27
  call void @_ZNSt7__cxx1112basic_stringIcSt11char_traitsIcESaIcEED1Ev(ptr noundef nonnull align 8 dereferenceable(32) %4) #15
  br label %52

51:                                               ; preds = %47, %45
  %.pn = phi { ptr, i32 } [ %48, %47 ], [ %46, %45 ]
  call void @_ZNSt7__cxx1112basic_stringIcSt11char_traitsIcESaIcEED1Ev(ptr noundef nonnull align 8 dereferenceable(32) %4) #15
  br label %53

52:                                               ; preds = %_ZSteqIcEN9__gnu_cxx11__enable_ifIXsr9__is_charIT_EE7__valueEbE6__typeERKNSt7__cxx1112basic_stringIS2_St11char_traitsIS2_ESaIS2_EEESC_.exit.thread21, %50
  call void @_ZNSt7__cxx1112basic_stringIcSt11char_traitsIcESaIcEED1Ev(ptr noundef nonnull align 8 dereferenceable(32) %3) #15
  ret ptr %0

53:                                               ; preds = %51, %24
  %.pn.pn = phi { ptr, i32 } [ %.pn, %51 ], [ %25, %24 ]
  call void @_ZNSt7__cxx1112basic_stringIcSt11char_traitsIcESaIcEED1Ev(ptr noundef nonnull align 8 dereferenceable(32) %3) #15
  resume { ptr, i32 } %.pn.pn
}